; Function Attrs: mustprogress uwtable
define hidden void @_ZN19OpenColorIO_v2_5dev29ExposureContrastTransformImpl8setGammaEd(ptr noundef nonnull readonly align 8 captures(none) dereferenceable(256) %0, double noundef %1) unnamed_addr #0 align 2 {
  %3 = getelementptr inbounds nuw i8, ptr %0, i64 216
  %4 = load ptr, ptr %3, align 8, !tbaa !57
  %5 = load ptr, ptr %4, align 8, !tbaa !3
  %6 = getelementptr inbounds nuw i8, ptr %5, i64 32
  %7 = load ptr, ptr %6, align 8
  tail call void %7(ptr noundef nonnull align 8 dereferenceable(32) %4, double noundef %1)
  ret void
}